; Function Attrs: mustprogress nounwind uwtable
define internal void @_ZN7testing8internal30ValuesInIteratorRangeGeneratorIN4perf12_GLOBAL__N_18MatDepthEE8IteratorD0Ev(ptr noundef nonnull align 8 dereferenceable(32) initializes((0, 8)) %0) unnamed_addr #7 align 2 personality ptr @__gxx_personality_v0 {
  store ptr getelementptr inbounds nuw inrange(-16, 56) (i8, ptr @_ZTVN7testing8internal30ValuesInIteratorRangeGeneratorIN4perf12_GLOBAL__N_18MatDepthEE8IteratorE, i64 16), ptr %0, align 8, !tbaa !12
  %2 = getelementptr inbounds nuw i8, ptr %0, i64 24
  %3 = load ptr, ptr %2, align 8, !tbaa !247
  %.not.i.i.i = icmp eq ptr %3, null
  br i1 %.not.i.i.i, label %_ZN7testing8internal30ValuesInIteratorRangeGeneratorIN4perf12_GLOBAL__N_18MatDepthEE8IteratorD2Ev.exit, label %4

4:                                                ; preds = %1
  %5 = invoke noundef zeroext i1 @_ZN7testing8internal6IsTrueEb(i1 noundef zeroext true)
          to label %.noexc.i.i unwind label %10

.noexc.i.i:                                       ; preds = %4
  br i1 %5, label %6, label %_ZN7testing8internal30ValuesInIteratorRangeGeneratorIN4perf12_GLOBAL__N_18MatDepthEE8IteratorD2Ev.exit

6:                                                ; preds = %.noexc.i.i
  %7 = load ptr, ptr %2, align 8, !tbaa !247
  %8 = icmp eq ptr %7, null
  br i1 %8, label %_ZN7testing8internal30ValuesInIteratorRangeGeneratorIN4perf12_GLOBAL__N_18MatDepthEE8IteratorD2Ev.exit, label %9

9:                                                ; preds = %6
  tail call void @_ZdlPv(ptr noundef nonnull %7) #30
  br label %_ZN7testing8internal30ValuesInIteratorRangeGeneratorIN4perf12_GLOBAL__N_18MatDepthEE8IteratorD2Ev.exit

10:                                               ; preds = %4
  %11 = landingpad { ptr, i32 }
          catch ptr null
  %12 = extractvalue { ptr, i32 } %11, 0
  tail call void @__clang_call_terminate(ptr %12) #31
  unreachable

_ZN7testing8internal30ValuesInIteratorRangeGeneratorIN4perf12_GLOBAL__N_18MatDepthEE8IteratorD2Ev.exit: ; preds = %.noexc.i.i, %6, %9, %1
  tail call void @_ZdlPv(ptr noundef nonnull %0) #30
  ret void
}